; ModuleID = 'source-C-CXX/22/116.c'
source_filename = "source-C-CXX/22/116.c"
target datalayout = "e-m:e-p270:32:32-p271:32:32-p272:64:64-i64:64-f80:128-n8:16:32:64-S128"
target triple = "x86_64-pc-linux-gnu"

@.str = private unnamed_addr constant [4 x i8] c"%s \00", align 1

; Function Attrs: nounwind sspstrong uwtable
define dso_local void @main() local_unnamed_addr #0 {
  %1 = alloca [101 x i8], align 16
  %2 = alloca [100 x [20 x i8]], align 16
  %3 = getelementptr inbounds [101 x i8], [101 x i8]* %1, i64 0, i64 0
  call void @llvm.lifetime.start.p0i8(i64 101, i8* nonnull %3) #7
  %4 = getelementptr inbounds [100 x [20 x i8]], [100 x [20 x i8]]* %2, i64 0, i64 0, i64 0
  call void @llvm.lifetime.start.p0i8(i64 2000, i8* nonnull %4) #7
  call void @llvm.memset.p0i8.i64(i8* noundef nonnull align 16 dereferenceable(2000) %4, i8 0, i64 2000, i1 false)
  %5 = call i32 (i8*, ...) bitcast (i32 (...)* @gets to i32 (i8*, ...)*)(i8* nonnull %3) #7
  %6 = call i64 @strlen(i8* noundef nonnull %3) #8
  %7 = icmp eq i64 %6, 0
  br i1 %7, label %37, label %12

8:                                                ; preds = %26
  %9 = icmp sgt i32 %27, 0
  br i1 %9, label %10, label %37

10:                                               ; preds = %8
  %11 = zext i32 %27 to i64
  br label %31

12:                                               ; preds = %0, %26
  %13 = phi i64 [ %29, %26 ], [ 0, %0 ]
  %14 = phi i32 [ %28, %26 ], [ 0, %0 ]
  %15 = phi i32 [ %27, %26 ], [ 0, %0 ]
  %16 = getelementptr inbounds [101 x i8], [101 x i8]* %1, i64 0, i64 %13
  %17 = load i8, i8* %16, align 1, !tbaa !5
  %18 = icmp eq i8 %17, 32
  %19 = sext i32 %15 to i64
  %20 = sext i32 %14 to i64
  %21 = getelementptr inbounds [100 x [20 x i8]], [100 x [20 x i8]]* %2, i64 0, i64 %19, i64 %20
  br i1 %18, label %24, label %22

22:                                               ; preds = %12
  store i8 %17, i8* %21, align 1, !tbaa !5
  %23 = add nsw i32 %14, 1
  br label %26

24:                                               ; preds = %12
  store i8 0, i8* %21, align 1, !tbaa !5
  %25 = add nsw i32 %15, 1
  br label %26

26:                                               ; preds = %22, %24
  %27 = phi i32 [ %15, %22 ], [ %25, %24 ]
  %28 = phi i32 [ %23, %22 ], [ 0, %24 ]
  %29 = add nuw nsw i64 %13, 1
  %30 = icmp eq i64 %29, %6
  br i1 %30, label %8, label %12, !llvm.loop !8

31:                                               ; preds = %10, %31
  %32 = phi i64 [ %11, %10 ], [ %36, %31 ]
  %33 = getelementptr inbounds [100 x [20 x i8]], [100 x [20 x i8]]* %2, i64 0, i64 %32, i64 0
  %34 = call i32 (i8*, ...) @printf(i8* nonnull dereferenceable(1) getelementptr inbounds ([4 x i8], [4 x i8]* @.str, i64 0, i64 0), i8* nonnull %33)
  %35 = icmp sgt i64 %32, 1
  %36 = add nsw i64 %32, -1
  br i1 %35, label %31, label %37, !llvm.loop !10

37:                                               ; preds = %31, %0, %8
  %38 = call i32 @puts(i8* nonnull %4)
  call void @llvm.lifetime.end.p0i8(i64 2000, i8* nonnull %4) #7
  call void @llvm.lifetime.end.p0i8(i64 101, i8* nonnull %3) #7
  ret void
}

; Function Attrs: argmemonly mustprogress nofree nosync nounwind willreturn
declare void @llvm.lifetime.start.p0i8(i64 immarg, i8* nocapture) #1

; Function Attrs: argmemonly mustprogress nofree nounwind willreturn writeonly
declare void @llvm.memset.p0i8.i64(i8* nocapture writeonly, i8, i64, i1 immarg) #2

declare i32 @gets(...) local_unnamed_addr #3

; Function Attrs: argmemonly mustprogress nofree nounwind readonly willreturn
declare i64 @strlen(i8* nocapture) local_unnamed_addr #4

; Function Attrs: nofree nounwind
declare noundef i32 @printf(i8* nocapture noundef readonly, ...) local_unnamed_addr #5

; Function Attrs: argmemonly mustprogress nofree nosync nounwind willreturn
declare void @llvm.lifetime.end.p0i8(i64 immarg, i8* nocapture) #1

; Function Attrs: nofree nounwind
declare noundef i32 @puts(i8* nocapture noundef readonly) local_unnamed_addr #6


!llvm.module.flags = !{!0, !1, !2, !3}
!llvm.ident = !{!4}

!0 = !{i32 1, !"wchar_size", i32 4}
!1 = !{i32 7, !"PIC Level", i32 2}
!2 = !{i32 7, !"PIE Level", i32 2}
!3 = !{i32 7, !"uwtable", i32 1}
!4 = !{!"clang version 13.0.0"}
!5 = !{!6, !6, i64 0}
!6 = !{!"omnipotent char", !7, i64 0}
!7 = !{!"Simple C/C++ TBAA"}
!8 = distinct !{!8, !9}
!9 = !{!"llvm.loop.mustprogress"}
!10 = distinct !{!10, !9}
